; Function Attrs: mustprogress uwtable
define void @_ZN7rocksdb19GetAggMergeOperatorEv(ptr dead_on_unwind noalias writable writeonly sret(%"class.std::shared_ptr") align 8 captures(none) %0) local_unnamed_addr #4 personality ptr @__gxx_personality_v0 {
  %2 = alloca %"class.std::shared_ptr.24", align 8
  %3 = load atomic i8, ptr @_ZGVZN7rocksdb19GetAggMergeOperatorEvE8instance acquire, align 8
  %4 = icmp eq i8 %3, 0
  br i1 %4, label %5, label %15, !prof !95

5:                                                ; preds = %1
  %6 = tail call i32 @__cxa_guard_acquire(ptr nonnull @_ZGVZN7rocksdb19GetAggMergeOperatorEvE8instance) #8
  %.not = icmp eq i32 %6, 0
  br i1 %.not, label %15, label %7

7:                                                ; preds = %5
  %8 = invoke noalias noundef nonnull dereferenceable(16) ptr @_Znwm(i64 noundef 16) #26
          to label %9 unwind label %29

9:                                                ; preds = %7
  call void @llvm.lifetime.start.p0(i64 16, ptr nonnull %2) #8
  invoke void @_ZSt11make_sharedIN7rocksdb16AggMergeOperatorEJEESt10shared_ptrINSt9enable_ifIXntsr8is_arrayIT_EE5valueES4_E4typeEEDpOT0_(ptr dead_on_unwind nonnull writable sret(%"class.std::shared_ptr.24") align 8 %2)
          to label %10 unwind label %31

10:                                               ; preds = %9
  %11 = load ptr, ptr %2, align 8, !tbaa !96
  store ptr %11, ptr %8, align 8, !tbaa !101
  %12 = getelementptr inbounds nuw i8, ptr %8, i64 8
  %13 = getelementptr inbounds nuw i8, ptr %2, i64 8
  %14 = load ptr, ptr %13, align 8, !tbaa !104
  store ptr null, ptr %13, align 8, !tbaa !104
  store ptr %14, ptr %12, align 8, !tbaa !104
  store ptr null, ptr %2, align 8, !tbaa !96
  call void @_ZNSt12__shared_ptrIN7rocksdb16AggMergeOperatorELN9__gnu_cxx12_Lock_policyE2EED2Ev(ptr noundef nonnull align 8 dereferenceable(16) %2) #8
  call void @llvm.lifetime.end.p0(i64 16, ptr nonnull %2) #8
  store ptr %8, ptr @_ZZN7rocksdb19GetAggMergeOperatorEvE8instance, align 8, !tbaa !105
  call void @__cxa_guard_release(ptr nonnull @_ZGVZN7rocksdb19GetAggMergeOperatorEvE8instance) #8
  br label %15

15:                                               ; preds = %10, %5, %1
  %16 = load ptr, ptr @_ZZN7rocksdb19GetAggMergeOperatorEvE8instance, align 8, !tbaa !105
  %17 = load ptr, ptr %16, align 8, !tbaa !101
  store ptr %17, ptr %0, align 8, !tbaa !101
  %18 = getelementptr inbounds nuw i8, ptr %0, i64 8
  %19 = getelementptr inbounds nuw i8, ptr %16, i64 8
  %20 = load ptr, ptr %19, align 8, !tbaa !104
  store ptr %20, ptr %18, align 8, !tbaa !104
  %.not.i.i.i = icmp eq ptr %20, null
  br i1 %.not.i.i.i, label %_ZNSt10shared_ptrIN7rocksdb13MergeOperatorEEC2ERKS2_.exit, label %21

21:                                               ; preds = %15
  %22 = getelementptr inbounds nuw i8, ptr %20, i64 8
  %23 = load i8, ptr @__libc_single_threaded, align 1, !tbaa !26
  %.not.i.i.i.i = icmp eq i8 %23, 0
  br i1 %.not.i.i.i.i, label %27, label %24

24:                                               ; preds = %21
  %25 = load i32, ptr %22, align 4, !tbaa !47
  %26 = add nsw i32 %25, 1
  store i32 %26, ptr %22, align 4, !tbaa !47
  br label %_ZNSt10shared_ptrIN7rocksdb13MergeOperatorEEC2ERKS2_.exit

27:                                               ; preds = %21
  %28 = atomicrmw volatile add ptr %22, i32 1 acq_rel, align 4
  br label %_ZNSt10shared_ptrIN7rocksdb13MergeOperatorEEC2ERKS2_.exit

_ZNSt10shared_ptrIN7rocksdb13MergeOperatorEEC2ERKS2_.exit: ; preds = %15, %24, %27
  ret void

29:                                               ; preds = %7
  %30 = landingpad { ptr, i32 }
          cleanup
  br label %33

31:                                               ; preds = %9
  %32 = landingpad { ptr, i32 }
          cleanup
  call void @llvm.lifetime.end.p0(i64 16, ptr nonnull %2) #8
  call void @_ZdlPvm(ptr noundef nonnull %8, i64 noundef 16) #24
  br label %33

33:                                               ; preds = %31, %29
  %.pn = phi { ptr, i32 } [ %32, %31 ], [ %30, %29 ]
  call void @__cxa_guard_abort(ptr nonnull @_ZGVZN7rocksdb19GetAggMergeOperatorEvE8instance) #8
  resume { ptr, i32 } %.pn
}